; Function Attrs: mustprogress uwtable
define noundef zeroext i1 @_ZNK8facebook5velox4Type15containsUnknownEv(ptr noundef nonnull align 8 dereferenceable(17) %this) local_unnamed_addr #0 align 2 {
entry:
  %kind_ = getelementptr inbounds i8, ptr %this, i64 16
  %0 = load i8, ptr %kind_, align 8
  %cmp = icmp eq i8 %0, 33
  br i1 %cmp, label %return, label %for.cond.preheader

for.cond.preheader:                               ; preds = %entry
  %vtable4 = load ptr, ptr %this, align 8
  %vfn5 = getelementptr inbounds i8, ptr %vtable4, i64 16
  %1 = load ptr, ptr %vfn5, align 8
  %call6 = tail call noundef i32 %1(ptr noundef nonnull align 8 dereferenceable(8) %this)
  %cmp27.not = icmp eq i32 %call6, 0
  br i1 %cmp27.not, label %return, label %for.body

for.cond:                                         ; preds = %for.body
  %inc = add nuw nsw i32 %i.08, 1
  %vtable = load ptr, ptr %this, align 8
  %vfn = getelementptr inbounds i8, ptr %vtable, i64 16
  %2 = load ptr, ptr %vfn, align 8
  %call = tail call noundef i32 %2(ptr noundef nonnull align 8 dereferenceable(8) %this)
  %cmp2 = icmp ult i32 %inc, %call
  br i1 %cmp2, label %for.body, label %return, !llvm.loop !140

for.body:                                         ; preds = %for.cond.preheader, %for.cond
  %i.08 = phi i32 [ %inc, %for.cond ], [ 0, %for.cond.preheader ]
  %vtable3 = load ptr, ptr %this, align 8
  %vfn4 = getelementptr inbounds i8, ptr %vtable3, i64 24
  %3 = load ptr, ptr %vfn4, align 8
  %call5 = tail call noundef nonnull align 8 dereferenceable(16) ptr %3(ptr noundef nonnull align 8 dereferenceable(8) %this, i32 noundef %i.08)
  %4 = load ptr, ptr %call5, align 8
  %call7 = tail call noundef zeroext i1 @_ZNK8facebook5velox4Type15containsUnknownEv(ptr noundef nonnull align 8 dereferenceable(17) %4)
  br i1 %call7, label %return, label %for.cond

return:                                           ; preds = %for.body, %for.cond, %for.cond.preheader, %entry
  %retval.0 = phi i1 [ true, %entry ], [ false, %for.cond.preheader ], [ %call7, %for.cond ], [ %call7, %for.body ]
  ret i1 %retval.0
}